; Function Attrs: mustprogress uwtable
define hidden noundef ptr @_Z22mk_purify_arith_tacticR11ast_managerRK10params_ref(ptr noundef nonnull align 8 dereferenceable(976) %0, ptr noundef nonnull align 8 dereferenceable(8) %1) local_unnamed_addr #3 personality ptr @__gxx_personality_v0 {
  %3 = alloca %class.params_ref, align 8
  %4 = alloca %class.params_ref, align 8
  call void @llvm.lifetime.start.p0(i64 8, ptr nonnull %3) #20
  call void @_ZN10params_refC1ERKS_(ptr noundef nonnull align 8 dereferenceable(8) %3, ptr noundef nonnull align 8 dereferenceable(8) %1)
  invoke void @_ZN10params_ref8set_boolEPKcb(ptr noundef nonnull align 8 dereferenceable(8) %3, ptr noundef nonnull @.str, i1 noundef zeroext true)
          to label %5 unwind label %24

5:                                                ; preds = %2
  call void @llvm.lifetime.start.p0(i64 8, ptr nonnull %4) #20
  store ptr null, ptr %4, align 8, !tbaa !3
  invoke void @_ZN10params_ref8set_boolEPKcb(ptr noundef nonnull align 8 dereferenceable(8) %4, ptr noundef nonnull @.str.1, i1 noundef zeroext false)
          to label %6 unwind label %26

6:                                                ; preds = %5
  %7 = invoke noundef ptr @_Z13mk_snf_tacticR11ast_managerRK10params_ref(ptr noundef nonnull align 8 dereferenceable(976) %0, ptr noundef nonnull align 8 dereferenceable(8) %4)
          to label %8 unwind label %26

8:                                                ; preds = %6
  %9 = invoke noundef ptr @_Z12using_paramsP6tacticRK10params_ref(ptr noundef %7, ptr noundef nonnull align 8 dereferenceable(8) %4)
          to label %10 unwind label %26

10:                                               ; preds = %8
  %11 = invoke noundef ptr @_Z18mk_simplify_tacticR11ast_managerRK10params_ref(ptr noundef nonnull align 8 dereferenceable(976) %0, ptr noundef nonnull align 8 dereferenceable(8) %3)
          to label %12 unwind label %26

12:                                               ; preds = %10
  %13 = invoke noundef ptr @_Z12using_paramsP6tacticRK10params_ref(ptr noundef %11, ptr noundef nonnull align 8 dereferenceable(8) %3)
          to label %14 unwind label %26

14:                                               ; preds = %12
  %15 = invoke noalias noundef ptr @_ZN6memory8allocateEm(i64 noundef 40)
          to label %16 unwind label %26

16:                                               ; preds = %14
  %17 = getelementptr inbounds nuw i8, ptr %15, i64 8
  store i32 0, ptr %17, align 8, !tbaa !9
  store ptr getelementptr inbounds nuw inrange(-16, 192) (i8, ptr @_ZTV19purify_arith_tactic, i64 16), ptr %15, align 8, !tbaa !13
  %18 = getelementptr inbounds nuw i8, ptr %15, i64 16
  invoke void @_ZN10arith_utilC1ER11ast_manager(ptr noundef nonnull align 8 dereferenceable(16) %18, ptr noundef nonnull align 8 dereferenceable(976) %0)
          to label %.noexc unwind label %26

.noexc:                                           ; preds = %16
  %19 = getelementptr inbounds nuw i8, ptr %15, i64 32
  invoke void @_ZN10params_refC1ERKS_(ptr noundef nonnull align 8 dereferenceable(8) %19, ptr noundef nonnull align 8 dereferenceable(8) %1)
          to label %_ZN19purify_arith_tacticC2ER11ast_managerRK10params_ref.exit unwind label %26

_ZN19purify_arith_tacticC2ER11ast_managerRK10params_ref.exit: ; preds = %.noexc
  %20 = invoke noundef ptr @_Z18mk_simplify_tacticR11ast_managerRK10params_ref(ptr noundef nonnull align 8 dereferenceable(976) %0, ptr noundef nonnull align 8 dereferenceable(8) %1)
          to label %21 unwind label %26

21:                                               ; preds = %_ZN19purify_arith_tacticC2ER11ast_managerRK10params_ref.exit
  %22 = invoke noundef ptr @_Z8and_thenP6tacticS0_S0_S0_(ptr noundef %9, ptr noundef %13, ptr noundef nonnull %15, ptr noundef %20)
          to label %23 unwind label %26

23:                                               ; preds = %21
  call void @_ZN10params_refD1Ev(ptr noundef nonnull align 8 dereferenceable(8) %4) #20
  call void @llvm.lifetime.end.p0(i64 8, ptr nonnull %4) #20
  call void @_ZN10params_refD1Ev(ptr noundef nonnull align 8 dereferenceable(8) %3) #20
  call void @llvm.lifetime.end.p0(i64 8, ptr nonnull %3) #20
  ret ptr %22

24:                                               ; preds = %2
  %25 = landingpad { ptr, i32 }
          cleanup
  br label %28

26:                                               ; preds = %.noexc, %16, %21, %_ZN19purify_arith_tacticC2ER11ast_managerRK10params_ref.exit, %14, %12, %10, %8, %6, %5
  %27 = landingpad { ptr, i32 }
          cleanup
  call void @_ZN10params_refD1Ev(ptr noundef nonnull align 8 dereferenceable(8) %4) #20
  call void @llvm.lifetime.end.p0(i64 8, ptr nonnull %4) #20
  br label %28

28:                                               ; preds = %26, %24
  %.pn = phi { ptr, i32 } [ %27, %26 ], [ %25, %24 ]
  call void @_ZN10params_refD1Ev(ptr noundef nonnull align 8 dereferenceable(8) %3) #20
  call void @llvm.lifetime.end.p0(i64 8, ptr nonnull %3) #20
  resume { ptr, i32 } %.pn
}